; ModuleID = '30/350.cpp'
source_filename = "30/350.cpp"
target datalayout = "e-m:e-p270:32:32-p271:32:32-p272:64:64-i64:64-f80:128-n8:16:32:64-S128"
target triple = "x86_64-pc-linux-gnu"

%"class.std::ios_base::Init" = type { i8 }
%"class.std::basic_istream" = type { i32 (...)**, i64, %"class.std::basic_ios" }
%"class.std::basic_ios" = type { %"class.std::ios_base", %"class.std::basic_ostream"*, i8, i8, %"class.std::basic_streambuf"*, %"class.std::ctype"*, %"class.std::num_put"*, %"class.std::num_get"* }
%"class.std::ios_base" = type { i32 (...)**, i64, i64, i32, i32, i32, %"struct.std::ios_base::_Callback_list"*, %"struct.std::ios_base::_Words", [8 x %"struct.std::ios_base::_Words"], i32, %"struct.std::ios_base::_Words"*, %"class.std::locale" }
%"struct.std::ios_base::_Callback_list" = type { %"struct.std::ios_base::_Callback_list"*, void (i32, %"class.std::ios_base"*, i32)*, i32, i32 }
%"struct.std::ios_base::_Words" = type { i8*, i64 }
%"class.std::locale" = type { %"class.std::locale::_Impl"* }
%"class.std::locale::_Impl" = type { i32, %"class.std::locale::facet"**, i64, %"class.std::locale::facet"**, i8** }
%"class.std::locale::facet" = type <{ i32 (...)**, i32, [4 x i8] }>
%"class.std::basic_ostream" = type { i32 (...)**, %"class.std::basic_ios" }
%"class.std::basic_streambuf" = type { i32 (...)**, i8*, i8*, i8*, i8*, i8*, i8*, %"class.std::locale" }
%"class.std::ctype" = type <{ %"class.std::locale::facet.base", [4 x i8], %struct.__locale_struct*, i8, [7 x i8], i32*, i32*, i16*, i8, [256 x i8], [256 x i8], i8, [6 x i8] }>
%"class.std::locale::facet.base" = type <{ i32 (...)**, i32 }>
%struct.__locale_struct = type { [13 x %struct.__locale_data*], i16*, i32*, i32*, [13 x i8*] }
%struct.__locale_data = type opaque
%"class.std::num_put" = type { %"class.std::locale::facet.base", [4 x i8] }
%"class.std::num_get" = type { %"class.std::locale::facet.base", [4 x i8] }

$_ZSt3powIdiEN9__gnu_cxx11__promote_2IT_T0_NS0_9__promoteIS2_Xsr3std12__is_integerIS2_EE7__valueEE6__typeENS4_IS3_Xsr3std12__is_integerIS3_EE7__valueEE6__typeEE6__typeES2_S3_ = comdat any

@_ZStL8__ioinit = internal global %"class.std::ios_base::Init" zeroinitializer, align 1
@__dso_handle = external hidden global i8
@_ZSt3cin = external dso_local global %"class.std::basic_istream", align 8
@_ZSt4cout = external dso_local global %"class.std::basic_ostream", align 8
@llvm.global_ctors = appending global [1 x { i32, void ()*, i8* }] [{ i32, void ()*, i8* } { i32 65535, void ()* @_GLOBAL__sub_I_350.cpp, i8* null }]

; Function Attrs: noinline uwtable
define internal void @__cxx_global_var_init() #0 section ".text.startup" {
  call void @_ZNSt8ios_base4InitC1Ev(%"class.std::ios_base::Init"* @_ZStL8__ioinit)
  %1 = call i32 @__cxa_atexit(void (i8*)* bitcast (void (%"class.std::ios_base::Init"*)* @_ZNSt8ios_base4InitD1Ev to void (i8*)*), i8* getelementptr inbounds (%"class.std::ios_base::Init", %"class.std::ios_base::Init"* @_ZStL8__ioinit, i32 0, i32 0), i8* @__dso_handle) #3
  ret void
}

declare dso_local void @_ZNSt8ios_base4InitC1Ev(%"class.std::ios_base::Init"*) unnamed_addr #1

; Function Attrs: nounwind
declare dso_local void @_ZNSt8ios_base4InitD1Ev(%"class.std::ios_base::Init"*) unnamed_addr #2

; Function Attrs: nounwind
declare dso_local i32 @__cxa_atexit(void (i8*)*, i8*, i8*) #3

; Function Attrs: noinline norecurse uwtable
define dso_local i32 @main() #4 {
  %1 = alloca i32, align 4
  %2 = alloca i32, align 4
  %3 = alloca i32, align 4
  %4 = alloca i32, align 4
  store i32 0, i32* %1, align 4
  store i32 0, i32* %4, align 4
  %5 = call dereferenceable(280) %"class.std::basic_istream"* @_ZNSirsERi(%"class.std::basic_istream"* @_ZSt3cin, i32* dereferenceable(4) %2)
  store i32 1, i32* %3, align 4
  br label %6

6:                                                ; preds = %57, %0
  %7 = load i32, i32* %3, align 4
  %8 = load i32, i32* %2, align 4
  %9 = icmp sle i32 %7, %8
  br i1 %9, label %10, label %60

10:                                               ; preds = %6
  %11 = load i32, i32* %3, align 4
  %12 = icmp slt i32 69, %11
  br i1 %12, label %13, label %16

13:                                               ; preds = %10
  %14 = load i32, i32* %3, align 4
  %15 = icmp slt i32 %14, 80
  br i1 %15, label %47, label %16

16:                                               ; preds = %13, %10
  %17 = load i32, i32* %3, align 4
  %18 = icmp eq i32 %17, 7
  br i1 %18, label %47, label %19

19:                                               ; preds = %16
  %20 = load i32, i32* %3, align 4
  %21 = icmp eq i32 %20, 17
  br i1 %21, label %47, label %22

22:                                               ; preds = %19
  %23 = load i32, i32* %3, align 4
  %24 = icmp eq i32 %23, 27
  br i1 %24, label %47, label %25

25:                                               ; preds = %22
  %26 = load i32, i32* %3, align 4
  %27 = icmp eq i32 %26, 37
  br i1 %27, label %47, label %28

28:                                               ; preds = %25
  %29 = load i32, i32* %3, align 4
  %30 = icmp eq i32 %29, 47
  br i1 %30, label %47, label %31

31:                                               ; preds = %28
  %32 = load i32, i32* %3, align 4
  %33 = icmp eq i32 %32, 57
  br i1 %33, label %47, label %34

34:                                               ; preds = %31
  %35 = load i32, i32* %3, align 4
  %36 = icmp eq i32 %35, 67
  br i1 %36, label %47, label %37

37:                                               ; preds = %34
  %38 = load i32, i32* %3, align 4
  %39 = icmp eq i32 %38, 87
  br i1 %39, label %47, label %40

40:                                               ; preds = %37
  %41 = load i32, i32* %3, align 4
  %42 = icmp eq i32 %41, 97
  br i1 %42, label %47, label %43

43:                                               ; preds = %40
  %44 = load i32, i32* %3, align 4
  %45 = srem i32 %44, 7
  %46 = icmp eq i32 %45, 0
  br i1 %46, label %47, label %48

47:                                               ; preds = %43, %40, %37, %34, %31, %28, %25, %22, %19, %16, %13
  br label %57

48:                                               ; preds = %43
  %49 = load i32, i32* %4, align 4
  %50 = sitofp i32 %49 to double
  %51 = load i32, i32* %3, align 4
  %52 = sitofp i32 %51 to double
  %53 = call double @_ZSt3powIdiEN9__gnu_cxx11__promote_2IT_T0_NS0_9__promoteIS2_Xsr3std12__is_integerIS2_EE7__valueEE6__typeENS4_IS3_Xsr3std12__is_integerIS3_EE7__valueEE6__typeEE6__typeES2_S3_(double %52, i32 2)
  %54 = fadd double %50, %53
  %55 = fptosi double %54 to i32
  store i32 %55, i32* %4, align 4
  br label %56

56:                                               ; preds = %48
  br label %57

57:                                               ; preds = %56, %47
  %58 = load i32, i32* %3, align 4
  %59 = add nsw i32 %58, 1
  store i32 %59, i32* %3, align 4
  br label %6

60:                                               ; preds = %6
  %61 = load i32, i32* %4, align 4
  %62 = call dereferenceable(272) %"class.std::basic_ostream"* @_ZNSolsEi(%"class.std::basic_ostream"* @_ZSt4cout, i32 %61)
  %63 = load i32, i32* %1, align 4
  ret i32 %63
}

declare dso_local dereferenceable(280) %"class.std::basic_istream"* @_ZNSirsERi(%"class.std::basic_istream"*, i32* dereferenceable(4)) #1

; Function Attrs: noinline nounwind uwtable
define linkonce_odr dso_local double @_ZSt3powIdiEN9__gnu_cxx11__promote_2IT_T0_NS0_9__promoteIS2_Xsr3std12__is_integerIS2_EE7__valueEE6__typeENS4_IS3_Xsr3std12__is_integerIS3_EE7__valueEE6__typeEE6__typeES2_S3_(double %0, i32 %1) #5 comdat {
  %3 = alloca double, align 8
  %4 = alloca i32, align 4
  store double %0, double* %3, align 8
  store i32 %1, i32* %4, align 4
  %5 = load double, double* %3, align 8
  %6 = load i32, i32* %4, align 4
  %7 = sitofp i32 %6 to double
  %8 = call double @pow(double %5, double %7) #3
  ret double %8
}

declare dso_local dereferenceable(272) %"class.std::basic_ostream"* @_ZNSolsEi(%"class.std::basic_ostream"*, i32) #1

; Function Attrs: nounwind
declare dso_local double @pow(double, double) #2

; Function Attrs: noinline uwtable
define internal void @_GLOBAL__sub_I_350.cpp() #0 section ".text.startup" {
  call void @__cxx_global_var_init()
  ret void
}


!llvm.module.flags = !{!0}
!llvm.ident = !{!1}

!0 = !{i32 1, !"wchar_size", i32 4}
!1 = !{!"clang version 10.0.0-4ubuntu1 "}
